; Function Attrs: mustprogress nofree norecurse nosync nounwind willreturn memory(argmem: readwrite) uwtable
define hidden void @_ZN22ThreadLocalAllocBuffer14set_sample_endEb(ptr nocapture noundef nonnull align 8 dereferenceable(116) %0, i1 noundef zeroext %1) local_unnamed_addr #6 align 2 {
  %3 = getelementptr inbounds i8, ptr %0, i64 24
  %4 = load ptr, ptr %3, align 8
  %5 = getelementptr inbounds i8, ptr %0, i64 8
  %6 = load ptr, ptr %5, align 8
  %7 = ptrtoint ptr %4 to i64
  %8 = ptrtoint ptr %6 to i64
  %9 = sub i64 %7, %8
  %10 = lshr i64 %9, 3
  %11 = getelementptr inbounds i8, ptr %0, i64 128
  %12 = load i64, ptr %11, align 8
  %13 = lshr i64 %12, 3
  br i1 %1, label %14, label %16

14:                                               ; preds = %2
  %15 = getelementptr inbounds i8, ptr %0, i64 64
  store i64 0, ptr %15, align 8
  br label %16

16:                                               ; preds = %14, %2
  %17 = icmp ugt i64 %10, %13
  br i1 %17, label %18, label %20

18:                                               ; preds = %16
  %19 = getelementptr inbounds ptr, ptr %6, i64 %13
  store ptr %19, ptr %3, align 8
  br label %22

20:                                               ; preds = %16
  %21 = and i64 %9, -8
  br label %22

22:                                               ; preds = %20, %18
  %.sink11 = phi i64 [ %21, %20 ], [ %12, %18 ]
  %23 = getelementptr inbounds i8, ptr %0, i64 64
  %24 = load i64, ptr %23, align 8
  %25 = add i64 %24, %.sink11
  store i64 %25, ptr %23, align 8
  ret void
}